target datalayout = "e-m:e-p270:32:32-p271:32:32-p272:64:64-i64:64-i128:128-f80:128-n8:16:32:64-S128"
target triple = "x86_64-unknown-linux-gnu"

%struct.hdr_histogram = type { i64, i64, i32, i32, i32, i32, i64, i32, i32, i64, i64, i32, double, i32, i64, ptr }
%struct.hdr_iter = type { ptr, i32, i64, i64, i64, i64, i64, i64, i64, i64, i64, %union.anon, ptr }
%union.anon = type { %struct.hdr_iter_linear }
%struct.hdr_iter_linear = type { i64, i64, i64, i64 }
%struct.hdr_iter_recorded = type { i64 }

; Function Attrs: nounwind uwtable
define dso_local void @hdr_iter_init(ptr noundef %iter, ptr noundef %h) #0 {
entry:
  %iter.addr = alloca ptr, align 8
  %h.addr = alloca ptr, align 8
  store ptr %iter, ptr %iter.addr, align 8
  store ptr %h, ptr %h.addr, align 8
  %0 = load ptr, ptr %h.addr, align 8
  %1 = load ptr, ptr %iter.addr, align 8
  %h1 = getelementptr inbounds %struct.hdr_iter, ptr %1, i32 0, i32 0
  store ptr %0, ptr %h1, align 8
  %2 = load ptr, ptr %iter.addr, align 8
  %counts_index = getelementptr inbounds %struct.hdr_iter, ptr %2, i32 0, i32 1
  store i32 -1, ptr %counts_index, align 8
  %3 = load ptr, ptr %h.addr, align 8
  %total_count = getelementptr inbounds %struct.hdr_histogram, ptr %3, i32 0, i32 14
  %4 = load i64, ptr %total_count, align 8
  %5 = load ptr, ptr %iter.addr, align 8
  %total_count2 = getelementptr inbounds %struct.hdr_iter, ptr %5, i32 0, i32 2
  store i64 %4, ptr %total_count2, align 8
  %6 = load ptr, ptr %iter.addr, align 8
  %count = getelementptr inbounds %struct.hdr_iter, ptr %6, i32 0, i32 3
  store i64 0, ptr %count, align 8
  %7 = load ptr, ptr %iter.addr, align 8
  %cumulative_count = getelementptr inbounds %struct.hdr_iter, ptr %7, i32 0, i32 4
  store i64 0, ptr %cumulative_count, align 8
  %8 = load ptr, ptr %iter.addr, align 8
  %value = getelementptr inbounds %struct.hdr_iter, ptr %8, i32 0, i32 5
  store i64 0, ptr %value, align 8
  %9 = load ptr, ptr %iter.addr, align 8
  %highest_equivalent_value = getelementptr inbounds %struct.hdr_iter, ptr %9, i32 0, i32 6
  store i64 0, ptr %highest_equivalent_value, align 8
  %10 = load ptr, ptr %iter.addr, align 8
  %value_iterated_from = getelementptr inbounds %struct.hdr_iter, ptr %10, i32 0, i32 9
  store i64 0, ptr %value_iterated_from, align 8
  %11 = load ptr, ptr %iter.addr, align 8
  %value_iterated_to = getelementptr inbounds %struct.hdr_iter, ptr %11, i32 0, i32 10
  store i64 0, ptr %value_iterated_to, align 8
  %12 = load ptr, ptr %iter.addr, align 8
  %_next_fp = getelementptr inbounds %struct.hdr_iter, ptr %12, i32 0, i32 12
  store ptr @all_values_iter_next, ptr %_next_fp, align 8
  ret void
}

; Function Attrs: nounwind uwtable
define dso_local zeroext i1 @hdr_iter_next(ptr noundef %iter) #0 {
entry:
  %iter.addr = alloca ptr, align 8
  store ptr %iter, ptr %iter.addr, align 8
  %0 = load ptr, ptr %iter.addr, align 8
  %_next_fp = getelementptr inbounds %struct.hdr_iter, ptr %0, i32 0, i32 12
  %1 = load ptr, ptr %_next_fp, align 8
  %2 = load ptr, ptr %iter.addr, align 8
  %call = call zeroext i1 %1(ptr noundef %2)
  ret i1 %call
}

; Function Attrs: nounwind uwtable
define dso_local void @hdr_iter_recorded_init(ptr noundef %iter, ptr noundef %h) #0 {
entry:
  %iter.addr = alloca ptr, align 8
  %h.addr = alloca ptr, align 8
  store ptr %iter, ptr %iter.addr, align 8
  store ptr %h, ptr %h.addr, align 8
  %0 = load ptr, ptr %iter.addr, align 8
  %1 = load ptr, ptr %h.addr, align 8
  call void @hdr_iter_init(ptr noundef %0, ptr noundef %1)
  %2 = load ptr, ptr %iter.addr, align 8
  %specifics = getelementptr inbounds %struct.hdr_iter, ptr %2, i32 0, i32 11
  %count_added_in_this_iteration_step = getelementptr inbounds %struct.hdr_iter_recorded, ptr %specifics, i32 0, i32 0
  store i64 0, ptr %count_added_in_this_iteration_step, align 8
  %3 = load ptr, ptr %iter.addr, align 8
  %_next_fp = getelementptr inbounds %struct.hdr_iter, ptr %3, i32 0, i32 12
  store ptr @recorded_iter_next, ptr %_next_fp, align 8
  ret void
}

; Function Attrs: nounwind uwtable
define dso_local i64 @hdr_add_while_correcting_for_coordinated_omission(ptr noundef %h, ptr noundef %from, i64 noundef %expected_interval) #0 {
entry:
  %h.addr = alloca ptr, align 8
  %from.addr = alloca ptr, align 8
  %expected_interval.addr = alloca i64, align 8
  %iter = alloca %struct.hdr_iter, align 8
  %dropped = alloca i64, align 8
  %value = alloca i64, align 8
  %count = alloca i64, align 8
  store ptr %h, ptr %h.addr, align 8
  store ptr %from, ptr %from.addr, align 8
  store i64 %expected_interval, ptr %expected_interval.addr, align 8
  store i64 0, ptr %dropped, align 8
  %0 = load ptr, ptr %from.addr, align 8
  call void @hdr_iter_recorded_init(ptr noundef %iter, ptr noundef %0)
  br label %while.cond

while.cond:                                       ; preds = %if.end, %entry
  %call = call zeroext i1 @hdr_iter_next(ptr noundef %iter)
  br i1 %call, label %while.body, label %while.end

while.body:                                       ; preds = %while.cond
  %value1 = getelementptr inbounds %struct.hdr_iter, ptr %iter, i32 0, i32 5
  %1 = load i64, ptr %value1, align 8
  store i64 %1, ptr %value, align 8
  %count2 = getelementptr inbounds %struct.hdr_iter, ptr %iter, i32 0, i32 3
  %2 = load i64, ptr %count2, align 8
  store i64 %2, ptr %count, align 8
  %3 = load ptr, ptr %h.addr, align 8
  %4 = load i64, ptr %value, align 8
  %5 = load i64, ptr %count, align 8
  %6 = load i64, ptr %expected_interval.addr, align 8
  %call3 = call zeroext i1 @hdr_record_corrected_values(ptr noundef %3, i64 noundef %4, i64 noundef %5, i64 noundef %6)
  br i1 %call3, label %if.end, label %if.then

if.then:                                          ; preds = %while.body
  %7 = load i64, ptr %count, align 8
  %8 = load i64, ptr %dropped, align 8
  %add = add nsw i64 %8, %7
  store i64 %add, ptr %dropped, align 8
  br label %if.end

if.end:                                           ; preds = %if.then, %while.body
  br label %while.cond

while.end:                                        ; preds = %while.cond
  %9 = load i64, ptr %dropped, align 8
  ret i64 %9
}