; Function Attrs: nounwind uwtable
define dso_local i64 @hdr_add_while_correcting_for_coordinated_omission(ptr nocapture noundef %h, ptr noundef %from, i64 noundef %expected_interval) local_unnamed_addr #6 {
entry:
  %iter = alloca %struct.hdr_iter, align 8
  store ptr %from, ptr %iter, align 8
  %counts_index.i.i = getelementptr inbounds i8, ptr %iter, i64 8
  store i32 -1, ptr %counts_index.i.i, align 8
  %total_count.i.i = getelementptr inbounds i8, ptr %from, i64 88
  %0 = load i64, ptr %total_count.i.i, align 8
  %total_count2.i.i = getelementptr inbounds i8, ptr %iter, i64 16
  store i64 %0, ptr %total_count2.i.i, align 8
  %count.i.i = getelementptr inbounds i8, ptr %iter, i64 24
  %value_iterated_from.i.i = getelementptr inbounds i8, ptr %iter, i64 72
  %_next_fp.i.i = getelementptr inbounds i8, ptr %iter, i64 120
  call void @llvm.memset.p0.i64(ptr noundef nonnull align 8 dereferenceable(32) %count.i.i, i8 0, i64 32, i1 false)
  call void @llvm.memset.p0.i64(ptr noundef nonnull align 8 dereferenceable(24) %value_iterated_from.i.i, i8 0, i64 24, i1 false)
  store ptr @recorded_iter_next, ptr %_next_fp.i.i, align 8
  %call.i3 = call zeroext i1 @recorded_iter_next(ptr noundef nonnull %iter) #21
  br i1 %call.i3, label %while.body.lr.ph, label %while.end

while.body.lr.ph:                                 ; preds = %entry
  %value1 = getelementptr inbounds i8, ptr %iter, i64 40
  br label %while.body

while.body:                                       ; preds = %while.body.lr.ph, %while.body
  %dropped.04 = phi i64 [ 0, %while.body.lr.ph ], [ %spec.select, %while.body ]
  %1 = load i64, ptr %value1, align 8
  %2 = load i64, ptr %count.i.i, align 8
  %call3 = call zeroext i1 @hdr_record_corrected_values(ptr noundef %h, i64 noundef %1, i64 noundef %2, i64 noundef %expected_interval)
  %add = select i1 %call3, i64 0, i64 %2
  %spec.select = add nsw i64 %add, %dropped.04
  %3 = load ptr, ptr %_next_fp.i.i, align 8
  %call.i = call zeroext i1 %3(ptr noundef nonnull %iter) #21
  br i1 %call.i, label %while.body, label %while.end

while.end:                                        ; preds = %while.body, %entry
  %dropped.0.lcssa = phi i64 [ 0, %entry ], [ %spec.select, %while.body ]
  ret i64 %dropped.0.lcssa
}